target datalayout = "e-m:e-p270:32:32-p271:32:32-p272:64:64-i64:64-i128:128-f80:128-n8:16:32:64-S128"
target triple = "x86_64-unknown-linux-gnu"

%"struct.std::_Vector_base" = type { %"struct.std::_Vector_base<QuantLib::Matrix, std::allocator<QuantLib::Matrix>>::_Vector_impl" }
%"struct.std::_Vector_base<QuantLib::Matrix, std::allocator<QuantLib::Matrix>>::_Vector_impl" = type { %"struct.std::_Vector_base<QuantLib::Matrix, std::allocator<QuantLib::Matrix>>::_Vector_impl_data" }
%"struct.std::_Vector_base<QuantLib::Matrix, std::allocator<QuantLib::Matrix>>::_Vector_impl_data" = type { ptr, ptr, ptr }
%"class.boost::detail::shared_count" = type { ptr }
%"class.QuantLib::CotSwapFromFwdCorrelation" = type { %"class.QuantLib::PiecewiseConstantCorrelation", %"class.boost::shared_ptr.5", i64, %"class.std::vector" }
%"class.QuantLib::PiecewiseConstantCorrelation" = type { ptr }
%"class.boost::shared_ptr.5" = type { ptr, %"class.boost::detail::shared_count" }
%"class.std::vector" = type { %"struct.std::_Vector_base" }

@.str.15 = private unnamed_addr constant [8 x i8] c"px != 0\00", align 1
@.str.16 = private unnamed_addr constant [102 x i8] c"generated/home/dtcxzyw/WorkSpace/SDK/vcpkg/installed/x64-linux/include/boost/smart_ptr/shared_ptr.hpp\00", align 1

; Function Attrs: mustprogress uwtable
define linkonce_odr noundef ptr @_ZNK5boost10shared_ptrIN8QuantLib28PiecewiseConstantCorrelationEEptEv(ptr noundef nonnull align 8 dereferenceable(16) %this) #3 comdat align 2 {
entry:
  %this.addr = alloca ptr, align 8
  store ptr %this, ptr %this.addr, align 8, !tbaa !3
  %this1 = load ptr, ptr %this.addr, align 8
  %px = getelementptr inbounds nuw %"class.boost::shared_ptr.5", ptr %this1, i32 0, i32 0
  %0 = load ptr, ptr %px, align 8, !tbaa !28
  %cmp = icmp ne ptr %0, null
  %lnot = xor i1 %cmp, true
  %lnot2 = xor i1 %lnot, true
  %conv = zext i1 %lnot2 to i64
  %expval = call i64 @llvm.expect.i64(i64 %conv, i64 1)
  %tobool = icmp ne i64 %expval, 0
  br i1 %tobool, label %cond.true, label %cond.false

cond.true:                                        ; preds = %entry
  br label %cond.end

cond.false:                                       ; preds = %entry
  call void @_ZN5boost16assertion_failedEPKcS1_S1_l(ptr noundef @.str.15, ptr noundef @__PRETTY_FUNCTION__._ZNK5boost10shared_ptrIN8QuantLib28PiecewiseConstantCorrelationEEptEv, ptr noundef @.str.16, i64 noundef 784)
  br label %cond.end

cond.end:                                         ; preds = %cond.false, %cond.true
  %px3 = getelementptr inbounds nuw %"class.boost::shared_ptr.5", ptr %this1, i32 0, i32 0
  %1 = load ptr, ptr %px3, align 8, !tbaa !28
  ret ptr %1
}

; Function Attrs: mustprogress uwtable
define noundef nonnull align 8 dereferenceable(24) ptr @_ZNK8QuantLib25CotSwapFromFwdCorrelation5timesEv(ptr noundef nonnull align 8 dereferenceable(56) %this) unnamed_addr #3 align 2 {
entry:
  %this.addr = alloca ptr, align 8
  store ptr %this, ptr %this.addr, align 8, !tbaa !3
  %this1 = load ptr, ptr %this.addr, align 8
  %fwdCorr_ = getelementptr inbounds nuw %"class.QuantLib::CotSwapFromFwdCorrelation", ptr %this1, i32 0, i32 1
  %call = call noundef ptr @_ZNK5boost10shared_ptrIN8QuantLib28PiecewiseConstantCorrelationEEptEv(ptr noundef nonnull align 8 dereferenceable(16) %fwdCorr_)
  %vtable = load ptr, ptr %call, align 8, !tbaa !9
  %vfn = getelementptr inbounds ptr, ptr %vtable, i64 2
  %0 = load ptr, ptr %vfn, align 8
  %call2 = call noundef nonnull align 8 dereferenceable(24) ptr %0(ptr noundef nonnull align 8 dereferenceable(8) %call)
  ret ptr %call2
}